target datalayout = "e-m:e-p270:32:32-p271:32:32-p272:64:64-i64:64-i128:128-f80:128-n8:16:32:64-S128"
target triple = "x86_64-pc-linux-gnu"

%struct.GlobalContext = type { %struct.HTable, ptr, ptr, ptr, ptr, ptr, ptr, ptr, ptr, i8, i32, i32, i32, ptr, ptr, %struct.HTable, %struct.HTable, %struct.Module_, %struct.DeclTable, %struct.DeclTable, %struct.Path_, ptr, ptr, ptr, ptr, ptr, ptr, ptr, [65536 x ptr], ptr, ptr, ptr }
%struct.HTable = type { i32, ptr }
%struct.Module_ = type { ptr, ptr, ptr, i16, i32, ptr, %struct.HTable, ptr, ptr, ptr, ptr, ptr, ptr, ptr, ptr, ptr }
%struct.DeclTable = type { i32, i32, i32, ptr }
%struct.Path_ = type { %union.SourceSpan, ptr, i32 }
%union.SourceSpan = type { i64 }
%struct.File = type { i16, ptr, i64, ptr, ptr, ptr }
%struct.ParseContext_ = type { %struct.TokenData, i32, %union.SourceSpan, %union.SourceSpan, ptr, %struct.Lexer }
%struct.TokenData = type { ptr, i64, %union.anon.86 }
%union.anon.86 = type { %struct.anon.89 }
%struct.anon.89 = type { %struct.Int128_, i8 }
%struct.Int128_ = type { i64, i64 }
%struct.Lexer = type { ptr, ptr, ptr, ptr, i32, i32, ptr, ptr, ptr, %struct.TokenData, %union.SourceSpan, i32, i32 }

@global_context = external global %struct.GlobalContext, align 8
@stdin_file = dso_local global %struct.File zeroinitializer, align 8
@.str = private unnamed_addr constant [6 x i8] c"stdin\00", align 1
@.str.1 = private unnamed_addr constant [8 x i8] c"<stdin>\00", align 1

; Function Attrs: nounwind uwtable
define dso_local zeroext i1 @parse_stdin() #0 {
  %1 = alloca i1, align 1
  %2 = alloca %struct.File, align 8
  %3 = alloca [65536 x i8], align 16
  %4 = alloca i64, align 8
  %5 = alloca i64, align 8
  %6 = alloca ptr, align 8
  %7 = alloca i32, align 4
  %8 = alloca ptr, align 8
  %9 = alloca ptr, align 8
  %10 = alloca %struct.ParseContext_, align 8
  %11 = alloca %struct.Lexer, align 8
  %12 = getelementptr inbounds %struct.File, ptr %2, i32 0, i32 0
  store i16 -1, ptr %12, align 8
  %13 = getelementptr inbounds %struct.File, ptr %2, i32 0, i32 1
  store ptr null, ptr %13, align 8
  %14 = getelementptr inbounds %struct.File, ptr %2, i32 0, i32 2
  store i64 0, ptr %14, align 8
  %15 = getelementptr inbounds %struct.File, ptr %2, i32 0, i32 3
  store ptr @.str, ptr %15, align 8
  %16 = getelementptr inbounds %struct.File, ptr %2, i32 0, i32 4
  store ptr null, ptr %16, align 8
  %17 = getelementptr inbounds %struct.File, ptr %2, i32 0, i32 5
  store ptr @.str.1, ptr %17, align 8
  call void @llvm.memcpy.p0.p0.i64(ptr align 8 @stdin_file, ptr align 8 %2, i64 48, i1 false)
  store i64 65536, ptr %4, align 8
  store i64 0, ptr %5, align 8
  %18 = getelementptr inbounds [65536 x i8], ptr %3, i64 0, i64 0
  store ptr %18, ptr %6, align 8
  br label %19

19:                                               ; preds = %46, %0
  %20 = call i32 @getchar()
  store i32 %20, ptr %7, align 4
  %21 = load i32, ptr %7, align 4
  %22 = icmp eq i32 %21, -1
  br i1 %22, label %23, label %24

23:                                               ; preds = %19
  br label %53

24:                                               ; preds = %19
  %25 = load i64, ptr %5, align 8
  %26 = load i64, ptr %4, align 8
  %27 = sub i64 %26, 1
  %28 = icmp uge i64 %25, %27
  br i1 %28, label %29, label %46

29:                                               ; preds = %24
  %30 = load i64, ptr %4, align 8
  %31 = mul i64 %30, 2
  store i64 %31, ptr %4, align 8
  %32 = getelementptr inbounds [65536 x i8], ptr %3, i64 0, i64 0
  %33 = load ptr, ptr %6, align 8
  %34 = icmp eq ptr %32, %33
  br i1 %34, label %35, label %41

35:                                               ; preds = %29
  %36 = load i64, ptr %4, align 8
  %37 = call noalias ptr @malloc(i64 noundef %36) #10
  store ptr %37, ptr %6, align 8
  %38 = load ptr, ptr %6, align 8
  %39 = getelementptr inbounds [65536 x i8], ptr %3, i64 0, i64 0
  %40 = load i64, ptr %5, align 8
  call void @llvm.memcpy.p0.p0.i64(ptr align 1 %38, ptr align 16 %39, i64 %40, i1 false)
  br label %45

41:                                               ; preds = %29
  %42 = load ptr, ptr %6, align 8
  %43 = load i64, ptr %4, align 8
  %44 = call ptr @realloc(ptr noundef %42, i64 noundef %43) #11
  store ptr %44, ptr %6, align 8
  br label %45

45:                                               ; preds = %41, %35
  br label %46

46:                                               ; preds = %45, %24
  %47 = load i32, ptr %7, align 4
  %48 = trunc i32 %47 to i8
  %49 = load ptr, ptr %6, align 8
  %50 = load i64, ptr %5, align 8
  %51 = add i64 %50, 1
  store i64 %51, ptr %5, align 8
  %52 = getelementptr inbounds i8, ptr %49, i64 %50
  store i8 %48, ptr %52, align 1
  br label %19

53:                                               ; preds = %23
  %54 = load i64, ptr %5, align 8
  %55 = getelementptr inbounds [65536 x i8], ptr %3, i64 0, i64 %54
  store i8 0, ptr %55, align 1
  %56 = load i64, ptr %5, align 8
  %57 = add i64 %56, 1
  %58 = call ptr @calloc_arena(i64 noundef %57)
  store ptr %58, ptr %8, align 8
  %59 = load ptr, ptr %8, align 8
  %60 = load ptr, ptr %6, align 8
  %61 = load i64, ptr %5, align 8
  %62 = add i64 %61, 1
  call void @llvm.memcpy.p0.p0.i64(ptr align 1 %59, ptr align 1 %60, i64 %62, i1 false)
  %63 = load ptr, ptr %6, align 8
  %64 = getelementptr inbounds [65536 x i8], ptr %3, i64 0, i64 0
  %65 = icmp ne ptr %63, %64
  br i1 %65, label %66, label %68

66:                                               ; preds = %53
  %67 = load ptr, ptr %6, align 8
  call void @free(ptr noundef %67) #12
  br label %68

68:                                               ; preds = %66, %53
  %69 = load ptr, ptr %8, align 8
  store ptr %69, ptr getelementptr inbounds (%struct.File, ptr @stdin_file, i32 0, i32 1), align 8
  %70 = call ptr @unit_create(ptr noundef @stdin_file)
  store ptr %70, ptr %9, align 8
  call void @llvm.memset.p0.i64(ptr align 8 %10, i8 0, i64 192, i1 false)
  %71 = getelementptr inbounds %struct.ParseContext_, ptr %10, i32 0, i32 4
  %72 = load ptr, ptr %9, align 8
  store ptr %72, ptr %71, align 8
  %73 = getelementptr inbounds %struct.ParseContext_, ptr %10, i32 0, i32 5
  call void @llvm.memset.p0.i64(ptr align 8 %11, i8 0, i64 120, i1 false)
  %74 = getelementptr inbounds %struct.Lexer, ptr %11, i32 0, i32 0
  store ptr %10, ptr %74, align 8
  %75 = getelementptr inbounds %struct.Lexer, ptr %11, i32 0, i32 8
  store ptr @stdin_file, ptr %75, align 8
  call void @llvm.memcpy.p0.p0.i64(ptr align 8 %73, ptr align 8 %11, i64 120, i1 false)
  %76 = getelementptr inbounds %struct.ParseContext_, ptr %10, i32 0, i32 5
  call void @lexer_init(ptr noundef %76)
  %77 = load i32, ptr getelementptr inbounds (%struct.GlobalContext, ptr @global_context, i32 0, i32 10), align 4
  %78 = icmp ne i32 %77, 0
  br i1 %78, label %79, label %80

79:                                               ; preds = %68
  store i1 false, ptr %1, align 1
  br label %84

80:                                               ; preds = %68
  call void @parse_translation_unit(ptr noundef %10)
  %81 = load i32, ptr getelementptr inbounds (%struct.GlobalContext, ptr @global_context, i32 0, i32 10), align 4
  %82 = icmp ne i32 %81, 0
  %83 = xor i1 %82, true
  store i1 %83, ptr %1, align 1
  br label %84

84:                                               ; preds = %80, %79
  %85 = load i1, ptr %1, align 1
  ret i1 %85
}