; Function Attrs: nounwind uwtable
define dso_local zeroext i1 @parse_stdin() local_unnamed_addr #0 {
  %1 = alloca [65536 x i8], align 16
  %2 = alloca %struct.ParseContext_, align 8
  store i16 -1, ptr @stdin_file, align 8
  tail call void @llvm.memset.p0.i64(ptr noundef nonnull align 8 dereferenceable(16) getelementptr inbounds (%struct.File, ptr @stdin_file, i64 0, i32 1), i8 0, i64 16, i1 false)
  store ptr @.str, ptr getelementptr inbounds (%struct.File, ptr @stdin_file, i64 0, i32 3), align 8
  store ptr null, ptr getelementptr inbounds (%struct.File, ptr @stdin_file, i64 0, i32 4), align 8
  store ptr @.str.1, ptr getelementptr inbounds (%struct.File, ptr @stdin_file, i64 0, i32 5), align 8
  %3 = tail call i32 @getchar()
  %4 = icmp eq i32 %3, -1
  br i1 %4, label %._crit_edge, label %.lr.ph

.lr.ph:                                           ; preds = %0, %14
  %5 = phi i32 [ %18, %14 ], [ %3, %0 ]
  %.02738 = phi i64 [ %.1, %14 ], [ 65536, %0 ]
  %.02837 = phi i64 [ %16, %14 ], [ 0, %0 ]
  %.02936 = phi ptr [ %.130, %14 ], [ %1, %0 ]
  %6 = add i64 %.02738, -1
  %.not = icmp ult i64 %.02837, %6
  br i1 %.not, label %14, label %7

7:                                                ; preds = %.lr.ph
  %8 = shl i64 %.02738, 1
  %9 = icmp eq ptr %1, %.02936
  br i1 %9, label %10, label %12

10:                                               ; preds = %7
  %11 = call noalias ptr @malloc(i64 noundef %8) #12
  call void @llvm.memcpy.p0.p0.i64(ptr align 1 %11, ptr nonnull align 16 %1, i64 %.02837, i1 false)
  br label %14

12:                                               ; preds = %7
  %13 = call ptr @realloc(ptr noundef nonnull %.02936, i64 noundef %8) #13
  br label %14

14:                                               ; preds = %10, %12, %.lr.ph
  %.130 = phi ptr [ %11, %10 ], [ %13, %12 ], [ %.02936, %.lr.ph ]
  %.1 = phi i64 [ %8, %10 ], [ %8, %12 ], [ %.02738, %.lr.ph ]
  %15 = trunc i32 %5 to i8
  %16 = add i64 %.02837, 1
  %17 = getelementptr inbounds i8, ptr %.130, i64 %.02837
  store i8 %15, ptr %17, align 1
  %18 = call i32 @getchar()
  %19 = icmp eq i32 %18, -1
  br i1 %19, label %._crit_edge, label %.lr.ph

._crit_edge:                                      ; preds = %14, %0
  %.029.lcssa = phi ptr [ %1, %0 ], [ %.130, %14 ]
  %.028.lcssa = phi i64 [ 0, %0 ], [ %16, %14 ]
  %20 = getelementptr inbounds [65536 x i8], ptr %1, i64 0, i64 %.028.lcssa
  store i8 0, ptr %20, align 1
  %21 = add i64 %.028.lcssa, 1
  %22 = call ptr @calloc_arena(i64 noundef %21) #10
  call void @llvm.memcpy.p0.p0.i64(ptr align 1 %22, ptr nonnull align 1 %.029.lcssa, i64 %21, i1 false)
  %.not33 = icmp eq ptr %.029.lcssa, %1
  br i1 %.not33, label %24, label %23

23:                                               ; preds = %._crit_edge
  call void @free(ptr noundef nonnull %.029.lcssa) #10
  br label %24

24:                                               ; preds = %23, %._crit_edge
  store ptr %22, ptr getelementptr inbounds (%struct.File, ptr @stdin_file, i64 0, i32 1), align 8
  %25 = call ptr @unit_create(ptr noundef nonnull @stdin_file) #10
  call void @llvm.memset.p0.i64(ptr noundef nonnull align 8 dereferenceable(192) %2, i8 0, i64 64, i1 false)
  %26 = getelementptr inbounds i8, ptr %2, i64 64
  store ptr %25, ptr %26, align 8
  %27 = getelementptr inbounds i8, ptr %2, i64 72
  %.sroa.3.0..sroa_idx = getelementptr inbounds i8, ptr %2, i64 80
  call void @llvm.memset.p0.i64(ptr noundef nonnull align 8 dereferenceable(48) %.sroa.3.0..sroa_idx, i8 0, i64 48, i1 false)
  %.sroa.4.0..sroa_idx = getelementptr inbounds i8, ptr %2, i64 136
  call void @llvm.memset.p0.i64(ptr noundef nonnull align 8 dereferenceable(56) %.sroa.4.0..sroa_idx, i8 0, i64 56, i1 false)
  store ptr %2, ptr %27, align 8
  %.sroa.31.0..sroa_idx = getelementptr inbounds i8, ptr %2, i64 128
  store ptr @stdin_file, ptr %.sroa.31.0..sroa_idx, align 8
  call void @lexer_init(ptr noundef nonnull %27) #10
  %28 = load i32, ptr getelementptr inbounds (%struct.GlobalContext, ptr @global_context, i64 0, i32 10), align 4
  %.not34 = icmp eq i32 %28, 0
  br i1 %.not34, label %29, label %31

29:                                               ; preds = %24
  call fastcc void @parse_translation_unit(ptr noundef nonnull %2)
  %30 = load i32, ptr getelementptr inbounds (%struct.GlobalContext, ptr @global_context, i64 0, i32 10), align 4
  %.not35 = icmp eq i32 %30, 0
  br label %31

31:                                               ; preds = %24, %29
  %.0 = phi i1 [ %.not35, %29 ], [ false, %24 ]
  ret i1 %.0
}